target datalayout = "e-m:e-p270:32:32-p271:32:32-p272:64:64-i64:64-i128:128-f80:128-n8:16:32:64-S128"
target triple = "x86_64-pc-linux-gnu"

%struct.Vec_Int_t_ = type { i32, i32, ptr }

; Function Attrs: inlinehint nounwind uwtable
define internal i32 @Vec_IntEntry(ptr noundef %0, i32 noundef %1) #2 {
  %3 = alloca ptr, align 8
  %4 = alloca i32, align 4
  store ptr %0, ptr %3, align 8, !tbaa !20
  store i32 %1, ptr %4, align 4, !tbaa !3
  %5 = load ptr, ptr %3, align 8, !tbaa !20
  %6 = getelementptr inbounds nuw %struct.Vec_Int_t_, ptr %5, i32 0, i32 2
  %7 = load ptr, ptr %6, align 8, !tbaa !27
  %8 = load i32, ptr %4, align 4, !tbaa !3
  %9 = sext i32 %8 to i64
  %10 = getelementptr inbounds i32, ptr %7, i64 %9
  %11 = load i32, ptr %10, align 4, !tbaa !3
  ret i32 %11
}

; Function Attrs: inlinehint nounwind uwtable
define internal i32 @Vec_IntSize(ptr noundef %0) #2 {
  %2 = alloca ptr, align 8
  store ptr %0, ptr %2, align 8, !tbaa !20
  %3 = load ptr, ptr %2, align 8, !tbaa !20
  %4 = getelementptr inbounds nuw %struct.Vec_Int_t_, ptr %3, i32 0, i32 1
  %5 = load i32, ptr %4, align 4, !tbaa !22
  ret i32 %5
}

; Function Attrs: nounwind uwtable
define i32 @Sim_UtilCountPairsOne(ptr noundef %0, ptr noundef %1) #0 {
  %3 = alloca ptr, align 8
  %4 = alloca ptr, align 8
  %5 = alloca i32, align 4
  %6 = alloca i32, align 4
  %7 = alloca i32, align 4
  %8 = alloca i32, align 4
  %9 = alloca i32, align 4
  store ptr %0, ptr %3, align 8, !tbaa !94
  store ptr %1, ptr %4, align 8, !tbaa !20
  call void @llvm.lifetime.start.p0(i64 4, ptr %5) #8
  call void @llvm.lifetime.start.p0(i64 4, ptr %6) #8
  call void @llvm.lifetime.start.p0(i64 4, ptr %7) #8
  call void @llvm.lifetime.start.p0(i64 4, ptr %8) #8
  call void @llvm.lifetime.start.p0(i64 4, ptr %9) #8
  store i32 0, ptr %9, align 4, !tbaa !3
  store i32 0, ptr %7, align 4, !tbaa !3
  br label %10

10:                                               ; preds = %46, %2
  %11 = load i32, ptr %7, align 4, !tbaa !3
  %12 = load ptr, ptr %4, align 8, !tbaa !20
  %13 = call i32 @Vec_IntSize(ptr noundef %12)
  %14 = icmp slt i32 %11, %13
  br i1 %14, label %15, label %19

15:                                               ; preds = %10
  %16 = load ptr, ptr %4, align 8, !tbaa !20
  %17 = load i32, ptr %7, align 4, !tbaa !3
  %18 = call i32 @Vec_IntEntry(ptr noundef %16, i32 noundef %17)
  store i32 %18, ptr %5, align 4, !tbaa !3
  br label %19

19:                                               ; preds = %15, %10
  %20 = phi i1 [ false, %10 ], [ true, %15 ]
  br i1 %20, label %21, label %49

21:                                               ; preds = %19
  %22 = load i32, ptr %7, align 4, !tbaa !3
  %23 = add nsw i32 %22, 1
  store i32 %23, ptr %8, align 4, !tbaa !3
  br label %24

24:                                               ; preds = %42, %21
  %25 = load i32, ptr %8, align 4, !tbaa !3
  %26 = load ptr, ptr %4, align 8, !tbaa !20
  %27 = call i32 @Vec_IntSize(ptr noundef %26)
  %28 = icmp slt i32 %25, %27
  br i1 %28, label %29, label %33

29:                                               ; preds = %24
  %30 = load ptr, ptr %4, align 8, !tbaa !20
  %31 = load i32, ptr %8, align 4, !tbaa !3
  %32 = call i32 @Vec_IntEntry(ptr noundef %30, i32 noundef %31)
  store i32 %32, ptr %6, align 4, !tbaa !3
  br label %33

33:                                               ; preds = %29, %24
  %34 = phi i1 [ false, %24 ], [ true, %29 ]
  br i1 %34, label %35, label %45

35:                                               ; preds = %33
  %36 = load ptr, ptr %3, align 8, !tbaa !94
  %37 = load i32, ptr %5, align 4, !tbaa !3
  %38 = load i32, ptr %6, align 4, !tbaa !3
  %39 = call i32 @Extra_BitMatrixLookup1(ptr noundef %36, i32 noundef %37, i32 noundef %38)
  %40 = load i32, ptr %9, align 4, !tbaa !3
  %41 = add nsw i32 %40, %39
  store i32 %41, ptr %9, align 4, !tbaa !3
  br label %42

42:                                               ; preds = %35
  %43 = load i32, ptr %8, align 4, !tbaa !3
  %44 = add nsw i32 %43, 1
  store i32 %44, ptr %8, align 4, !tbaa !3
  br label %24, !llvm.loop !96

45:                                               ; preds = %33
  br label %46

46:                                               ; preds = %45
  %47 = load i32, ptr %7, align 4, !tbaa !3
  %48 = add nsw i32 %47, 1
  store i32 %48, ptr %7, align 4, !tbaa !3
  br label %10, !llvm.loop !97

49:                                               ; preds = %19
  %50 = load i32, ptr %9, align 4, !tbaa !3
  call void @llvm.lifetime.end.p0(i64 4, ptr %9) #8
  call void @llvm.lifetime.end.p0(i64 4, ptr %8) #8
  call void @llvm.lifetime.end.p0(i64 4, ptr %7) #8
  call void @llvm.lifetime.end.p0(i64 4, ptr %6) #8
  call void @llvm.lifetime.end.p0(i64 4, ptr %5) #8
  ret i32 %50
}