; Function Attrs: nounwind uwtable
define i32 @Sim_UtilCountPairsOne(ptr noundef %0, ptr noundef readonly captures(none) %1) local_unnamed_addr #7 {
  %3 = getelementptr i8, ptr %1, i64 4
  %.val25 = load i32, ptr %3, align 4, !tbaa !16
  %4 = icmp sgt i32 %.val25, 0
  br i1 %4, label %.lr.ph28, label %.critedge

.lr.ph28:                                         ; preds = %2
  %5 = getelementptr i8, ptr %1, i64 8
  br label %7

.critedge2.loopexit.loopexit:                     ; preds = %.lr.ph
  %.pre = sext i32 %.val19 to i64
  br label %.critedge2.loopexit

.critedge2.loopexit:                              ; preds = %.critedge2.loopexit.loopexit, %7
  %.pre-phi = phi i64 [ %.pre, %.critedge2.loopexit.loopexit ], [ %10, %7 ]
  %.val = phi i32 [ %.val19, %.critedge2.loopexit.loopexit ], [ %.val37, %7 ]
  %.1.lcssa = phi i32 [ %15, %.critedge2.loopexit.loopexit ], [ %.027, %7 ]
  %6 = icmp slt i64 %indvars.iv.next34, %.pre-phi
  %indvars.iv.next = add nuw nsw i64 %indvars.iv, 1
  br i1 %6, label %7, label %.critedge, !llvm.loop !86

7:                                                ; preds = %.lr.ph28, %.critedge2.loopexit
  %.val37 = phi i32 [ %.val25, %.lr.ph28 ], [ %.val, %.critedge2.loopexit ]
  %indvars.iv33 = phi i64 [ 0, %.lr.ph28 ], [ %indvars.iv.next34, %.critedge2.loopexit ]
  %indvars.iv = phi i64 [ 1, %.lr.ph28 ], [ %indvars.iv.next, %.critedge2.loopexit ]
  %.027 = phi i32 [ 0, %.lr.ph28 ], [ %.1.lcssa, %.critedge2.loopexit ]
  %.val20 = load ptr, ptr %5, align 8, !tbaa !20
  %8 = getelementptr inbounds nuw i32, ptr %.val20, i64 %indvars.iv33
  %9 = load i32, ptr %8, align 4, !tbaa !14
  %indvars.iv.next34 = add nuw nsw i64 %indvars.iv33, 1
  %10 = sext i32 %.val37 to i64
  %11 = icmp slt i64 %indvars.iv.next34, %10
  br i1 %11, label %.lr.ph, label %.critedge2.loopexit

.lr.ph:                                           ; preds = %7, %.lr.ph
  %indvars.iv30 = phi i64 [ %indvars.iv.next31, %.lr.ph ], [ %indvars.iv, %7 ]
  %.124 = phi i32 [ %15, %.lr.ph ], [ %.027, %7 ]
  %.val21 = load ptr, ptr %5, align 8, !tbaa !20
  %12 = getelementptr inbounds nuw i32, ptr %.val21, i64 %indvars.iv30
  %13 = load i32, ptr %12, align 4, !tbaa !14
  %14 = tail call i32 @Extra_BitMatrixLookup1(ptr noundef %0, i32 noundef %9, i32 noundef %13) #18
  %15 = add nsw i32 %14, %.124
  %indvars.iv.next31 = add nuw nsw i64 %indvars.iv30, 1
  %.val19 = load i32, ptr %3, align 4, !tbaa !16
  %16 = trunc nuw i64 %indvars.iv.next31 to i32
  %17 = icmp sgt i32 %.val19, %16
  br i1 %17, label %.lr.ph, label %.critedge2.loopexit.loopexit, !llvm.loop !87

.critedge:                                        ; preds = %.critedge2.loopexit, %2
  %.0.lcssa = phi i32 [ 0, %2 ], [ %.1.lcssa, %.critedge2.loopexit ]
  ret i32 %.0.lcssa
}